target datalayout = "e-m:e-p270:32:32-p271:32:32-p272:64:64-i64:64-i128:128-f80:128-n8:16:32:64-S128"
target triple = "x86_64-pc-linux-gnu"

%struct.pmix_list_t = type { %struct.pmix_object_t, %struct.pmix_list_item_t, i64 }
%struct.pmix_object_t = type { %union.pthread_mutex_t, ptr, i32, %struct.pmix_tma }
%union.pthread_mutex_t = type { %struct.__pthread_mutex_s }
%struct.__pthread_mutex_s = type { i32, i32, i32, i32, i32, i16, i16, %struct.__pthread_internal_list }
%struct.__pthread_internal_list = type { ptr, ptr }
%struct.pmix_tma = type { ptr, ptr, ptr, ptr, ptr, ptr, ptr, ptr }
%struct.pmix_list_item_t = type { %struct.pmix_object_t, ptr, ptr, i32 }
%struct.pmix_hash_table_t = type { %struct.pmix_object_t, ptr, ptr, i64, i64, i64, i32, i32, i32, i32, ptr }
%struct.pmix_mca_base_component_repository_item_t = type { %struct.pmix_list_item_t, ptr, [32 x i8], [64 x i8], ptr, ptr, ptr, ptr, i32 }
%struct.pmix_mca_base_component_2_1_0_t = type { i32, i32, i32, [16 x i8], i32, i32, i32, [32 x i8], i32, i32, i32, [64 x i8], i32, i32, i32, ptr, ptr, ptr, ptr, [32 x i8] }

@pmix_mca_base_component_repository = internal global %struct.pmix_hash_table_t zeroinitializer, align 8

; Function Attrs: nounwind uwtable
define internal void @pmix_mca_base_component_repository_release_internal(ptr noundef %0) #0 {
  %2 = alloca ptr, align 8
  %3 = alloca i32, align 4
  store ptr %0, ptr %2, align 8, !tbaa !3
  call void @llvm.lifetime.start.p0(i64 4, ptr %3) #12
  %4 = load ptr, ptr %2, align 8, !tbaa !3
  %5 = getelementptr inbounds nuw %struct.pmix_mca_base_component_repository_item_t, ptr %4, i32 0, i32 2
  %6 = getelementptr inbounds [32 x i8], ptr %5, i64 0, i64 0
  %7 = load ptr, ptr %2, align 8, !tbaa !3
  %8 = getelementptr inbounds nuw %struct.pmix_mca_base_component_repository_item_t, ptr %7, i32 0, i32 3
  %9 = getelementptr inbounds [64 x i8], ptr %8, i64 0, i64 0
  %10 = call i32 @pmix_mca_base_var_group_find(ptr noundef null, ptr noundef %6, ptr noundef %9)
  store i32 %10, ptr %3, align 4, !tbaa !37
  %11 = load i32, ptr %3, align 4, !tbaa !37
  %12 = icmp sle i32 0, %11
  br i1 %12, label %13, label %16

13:                                               ; preds = %1
  %14 = load i32, ptr %3, align 4, !tbaa !37
  %15 = call i32 @pmix_mca_base_var_group_deregister(i32 noundef %14)
  br label %16

16:                                               ; preds = %13, %1
  %17 = load ptr, ptr %2, align 8, !tbaa !3
  %18 = getelementptr inbounds nuw %struct.pmix_mca_base_component_repository_item_t, ptr %17, i32 0, i32 6
  %19 = load ptr, ptr %18, align 8, !tbaa !8
  %20 = icmp ne ptr %19, null
  br i1 %20, label %21, label %28

21:                                               ; preds = %16
  %22 = load ptr, ptr %2, align 8, !tbaa !3
  %23 = getelementptr inbounds nuw %struct.pmix_mca_base_component_repository_item_t, ptr %22, i32 0, i32 6
  %24 = load ptr, ptr %23, align 8, !tbaa !8
  %25 = call i32 @pmix_pdl_close(ptr noundef %24)
  %26 = load ptr, ptr %2, align 8, !tbaa !3
  %27 = getelementptr inbounds nuw %struct.pmix_mca_base_component_repository_item_t, ptr %26, i32 0, i32 6
  store ptr null, ptr %27, align 8, !tbaa !8
  br label %28

28:                                               ; preds = %21, %16
  call void @llvm.lifetime.end.p0(i64 4, ptr %3) #12
  ret void
}

; Function Attrs: nounwind uwtable
define internal ptr @find_component(ptr noundef %0, ptr noundef %1) #0 {
  %3 = alloca ptr, align 8
  %4 = alloca ptr, align 8
  %5 = alloca ptr, align 8
  %6 = alloca ptr, align 8
  %7 = alloca ptr, align 8
  %8 = alloca i32, align 4
  %9 = alloca i32, align 4
  store ptr %0, ptr %4, align 8, !tbaa !30
  store ptr %1, ptr %5, align 8, !tbaa !30
  call void @llvm.lifetime.start.p0(i64 8, ptr %6) #12
  call void @llvm.lifetime.start.p0(i64 8, ptr %7) #12
  call void @llvm.lifetime.start.p0(i64 4, ptr %8) #12
  %10 = load ptr, ptr %4, align 8, !tbaa !30
  %11 = load ptr, ptr %4, align 8, !tbaa !30
  %12 = call i64 @strlen(ptr noundef %11) #13
  %13 = call i32 @pmix_hash_table_get_value_ptr(ptr noundef @pmix_mca_base_component_repository, ptr noundef %10, i64 noundef %12, ptr noundef %7)
  store i32 %13, ptr %8, align 4, !tbaa !37
  %14 = load i32, ptr %8, align 4, !tbaa !37
  %15 = icmp ne i32 0, %14
  br i1 %15, label %16, label %17

16:                                               ; preds = %2
  store ptr null, ptr %3, align 8
  store i32 1, ptr %9, align 4
  br label %42

17:                                               ; preds = %2
  %18 = load ptr, ptr %7, align 8, !tbaa !38
  %19 = getelementptr inbounds nuw %struct.pmix_list_t, ptr %18, i32 0, i32 1
  %20 = getelementptr inbounds nuw %struct.pmix_list_item_t, ptr %19, i32 0, i32 1
  %21 = load ptr, ptr %20, align 8, !tbaa !41
  store ptr %21, ptr %6, align 8, !tbaa !3
  br label %22

22:                                               ; preds = %37, %17
  %23 = load ptr, ptr %6, align 8, !tbaa !3
  %24 = load ptr, ptr %7, align 8, !tbaa !38
  %25 = getelementptr inbounds nuw %struct.pmix_list_t, ptr %24, i32 0, i32 1
  %26 = icmp ne ptr %23, %25
  br i1 %26, label %27, label %41

27:                                               ; preds = %22
  %28 = load ptr, ptr %6, align 8, !tbaa !3
  %29 = getelementptr inbounds nuw %struct.pmix_mca_base_component_repository_item_t, ptr %28, i32 0, i32 3
  %30 = getelementptr inbounds [64 x i8], ptr %29, i64 0, i64 0
  %31 = load ptr, ptr %5, align 8, !tbaa !30
  %32 = call i32 @strcmp(ptr noundef %30, ptr noundef %31) #13
  %33 = icmp eq i32 0, %32
  br i1 %33, label %34, label %36

34:                                               ; preds = %27
  %35 = load ptr, ptr %6, align 8, !tbaa !3
  store ptr %35, ptr %3, align 8
  store i32 1, ptr %9, align 4
  br label %42

36:                                               ; preds = %27
  br label %37

37:                                               ; preds = %36
  %38 = load ptr, ptr %6, align 8, !tbaa !3
  %39 = getelementptr inbounds nuw %struct.pmix_list_item_t, ptr %38, i32 0, i32 1
  %40 = load ptr, ptr %39, align 8, !tbaa !43
  store ptr %40, ptr %6, align 8, !tbaa !3
  br label %22, !llvm.loop !80

41:                                               ; preds = %22
  store ptr null, ptr %3, align 8
  store i32 1, ptr %9, align 4
  br label %42

42:                                               ; preds = %41, %34, %16
  call void @llvm.lifetime.end.p0(i64 4, ptr %8) #12
  call void @llvm.lifetime.end.p0(i64 8, ptr %7) #12
  call void @llvm.lifetime.end.p0(i64 8, ptr %6) #12
  %43 = load ptr, ptr %3, align 8
  ret ptr %43
}

; Function Attrs: nounwind uwtable
define void @pmix_mca_base_component_repository_release(ptr noundef %0) #0 {
  %2 = alloca ptr, align 8
  %3 = alloca ptr, align 8
  store ptr %0, ptr %2, align 8, !tbaa !78
  call void @llvm.lifetime.start.p0(i64 8, ptr %3) #12
  %4 = load ptr, ptr %2, align 8, !tbaa !78
  %5 = getelementptr inbounds nuw %struct.pmix_mca_base_component_2_1_0_t, ptr %4, i32 0, i32 7
  %6 = getelementptr inbounds [32 x i8], ptr %5, i64 0, i64 0
  %7 = load ptr, ptr %2, align 8, !tbaa !78
  %8 = getelementptr inbounds nuw %struct.pmix_mca_base_component_2_1_0_t, ptr %7, i32 0, i32 11
  %9 = getelementptr inbounds [64 x i8], ptr %8, i64 0, i64 0
  %10 = call ptr @find_component(ptr noundef %6, ptr noundef %9)
  store ptr %10, ptr %3, align 8, !tbaa !3
  %11 = load ptr, ptr %3, align 8, !tbaa !3
  %12 = icmp ne ptr null, %11
  br i1 %12, label %13, label %21

13:                                               ; preds = %1
  %14 = load ptr, ptr %3, align 8, !tbaa !3
  %15 = getelementptr inbounds nuw %struct.pmix_mca_base_component_repository_item_t, ptr %14, i32 0, i32 8
  %16 = load i32, ptr %15, align 8, !tbaa !79
  %17 = add nsw i32 %16, -1
  store i32 %17, ptr %15, align 8, !tbaa !79
  %18 = icmp ne i32 %17, 0
  br i1 %18, label %21, label %19

19:                                               ; preds = %13
  %20 = load ptr, ptr %3, align 8, !tbaa !3
  call void @pmix_mca_base_component_repository_release_internal(ptr noundef %20)
  br label %21

21:                                               ; preds = %19, %13, %1
  call void @llvm.lifetime.end.p0(i64 8, ptr %3) #12
  ret void
}