; Function Attrs: nounwind uwtable
define void @pmix_mca_base_component_repository_release(ptr noundef %0) local_unnamed_addr #1 {
  %2 = alloca ptr, align 8
  %3 = getelementptr inbounds nuw i8, ptr %0, i64 40
  %4 = getelementptr inbounds nuw i8, ptr %0, i64 84
  call void @llvm.lifetime.start.p0(i64 8, ptr nonnull %2) #15
  %5 = tail call i64 @strlen(ptr noundef nonnull dereferenceable(1) %3) #16
  %6 = call i32 @pmix_hash_table_get_value_ptr(ptr noundef nonnull @pmix_mca_base_component_repository, ptr noundef nonnull %3, i64 noundef %5, ptr noundef nonnull %2) #15
  %.not.i = icmp eq i32 %6, 0
  br i1 %.not.i, label %7, label %find_component.exit.thread

7:                                                ; preds = %1
  %8 = load ptr, ptr %2, align 8, !tbaa !38
  %9 = getelementptr inbounds nuw i8, ptr %8, i64 240
  %10 = getelementptr inbounds nuw i8, ptr %8, i64 120
  %.0810.i = load ptr, ptr %9, align 8, !tbaa !43
  %.not911.i = icmp eq ptr %.0810.i, %10
  br i1 %.not911.i, label %find_component.exit.thread, label %.lr.ph.i

.lr.ph.i:                                         ; preds = %7, %14
  %.0812.i = phi ptr [ %.08.i, %14 ], [ %.0810.i, %7 ]
  %11 = getelementptr inbounds nuw i8, ptr %.0812.i, i64 184
  %12 = call i32 @strcmp(ptr noundef nonnull dereferenceable(1) %11, ptr noundef nonnull readonly dereferenceable(1) %4) #16
  %13 = icmp eq i32 %12, 0
  br i1 %13, label %16, label %14

14:                                               ; preds = %.lr.ph.i
  %15 = getelementptr inbounds nuw i8, ptr %.0812.i, i64 120
  %.08.i = load ptr, ptr %15, align 8, !tbaa !43
  %.not9.i = icmp eq ptr %.08.i, %10
  br i1 %.not9.i, label %find_component.exit.thread, label %.lr.ph.i, !llvm.loop !54

find_component.exit.thread:                       ; preds = %14, %1, %7
  call void @llvm.lifetime.end.p0(i64 8, ptr nonnull %2) #15
  br label %pmix_mca_base_component_repository_release_internal.exit

16:                                               ; preds = %.lr.ph.i
  call void @llvm.lifetime.end.p0(i64 8, ptr nonnull %2) #15
  %17 = getelementptr inbounds nuw i8, ptr %.0812.i, i64 280
  %18 = load i32, ptr %17, align 8, !tbaa !55
  %19 = add nsw i32 %18, -1
  store i32 %19, ptr %17, align 8, !tbaa !55
  %.not5 = icmp eq i32 %19, 0
  br i1 %.not5, label %20, label %pmix_mca_base_component_repository_release_internal.exit

20:                                               ; preds = %16
  %21 = getelementptr inbounds nuw i8, ptr %.0812.i, i64 152
  %22 = call i32 @pmix_mca_base_var_group_find(ptr noundef null, ptr noundef nonnull %21, ptr noundef nonnull %11) #15
  %23 = icmp sgt i32 %22, -1
  br i1 %23, label %24, label %26

24:                                               ; preds = %20
  %25 = call i32 @pmix_mca_base_var_group_deregister(i32 noundef %22) #15
  br label %26

26:                                               ; preds = %24, %20
  %27 = getelementptr inbounds nuw i8, ptr %.0812.i, i64 264
  %28 = load ptr, ptr %27, align 8, !tbaa !17
  %.not.i6 = icmp eq ptr %28, null
  br i1 %.not.i6, label %pmix_mca_base_component_repository_release_internal.exit, label %29

29:                                               ; preds = %26
  %30 = call i32 @pmix_pdl_close(ptr noundef nonnull %28) #15
  store ptr null, ptr %27, align 8, !tbaa !17
  br label %pmix_mca_base_component_repository_release_internal.exit

pmix_mca_base_component_repository_release_internal.exit: ; preds = %29, %26, %find_component.exit.thread, %16
  ret void
}